target datalayout = "e-m:e-p270:32:32-p271:32:32-p272:64:64-i64:64-i128:128-f80:128-n8:16:32:64-S128"
target triple = "x86_64-pc-linux-gnu"

%struct.AVProbeData = type { ptr, ptr, i32, ptr }

@.str.3 = private unnamed_addr constant [5 x i8] c"SShd\00", align 1
@.str.4 = private unnamed_addr constant [5 x i8] c"SSbd\00", align 1

; Function Attrs: nounwind uwtable
define internal i32 @ads_probe(ptr noundef %0) #0 {
  %2 = alloca i32, align 4
  %3 = alloca ptr, align 8
  store ptr %0, ptr %3, align 8, !tbaa !4
  %4 = load ptr, ptr %3, align 8, !tbaa !4
  %5 = getelementptr inbounds nuw %struct.AVProbeData, ptr %4, i32 0, i32 1
  %6 = load ptr, ptr %5, align 8, !tbaa !9
  %7 = call i32 @memcmp(ptr noundef %6, ptr noundef @.str.3, i64 noundef 4) #4
  %8 = icmp ne i32 %7, 0
  br i1 %8, label %16, label %9

9:                                                ; preds = %1
  %10 = load ptr, ptr %3, align 8, !tbaa !4
  %11 = getelementptr inbounds nuw %struct.AVProbeData, ptr %10, i32 0, i32 1
  %12 = load ptr, ptr %11, align 8, !tbaa !9
  %13 = getelementptr inbounds i8, ptr %12, i64 32
  %14 = call i32 @memcmp(ptr noundef %13, ptr noundef @.str.4, i64 noundef 4) #4
  %15 = icmp ne i32 %14, 0
  br i1 %15, label %16, label %17

16:                                               ; preds = %9, %1
  store i32 0, ptr %2, align 4
  br label %18

17:                                               ; preds = %9
  store i32 66, ptr %2, align 4
  br label %18

18:                                               ; preds = %17, %16
  %19 = load i32, ptr %2, align 4
  ret i32 %19
}